target datalayout = "e-m:e-p270:32:32-p271:32:32-p272:64:64-i64:64-i128:128-f80:128-n8:16:32:64-S128"
target triple = "x86_64-pc-linux-gnu"

%struct.SDL_Pen = type { i32, ptr, %struct.SDL_PenInfo, [7 x float], float, float, i32, ptr }
%struct.SDL_PenInfo = type { i32, float, i32, i32, i32 }

@pen_device_rwlock = internal global ptr null, align 8
@pen_device_count = internal global i32 0, align 4
@pen_devices = internal global ptr null, align 8

; Function Attrs: nounwind uwtable
define hidden void @SDL_RemoveAllPenDevices(ptr noundef %0, ptr noundef %1) #0 {
  %3 = alloca ptr, align 8
  %4 = alloca ptr, align 8
  %5 = alloca i32, align 4
  store ptr %0, ptr %3, align 8
  store ptr %1, ptr %4, align 8
  %6 = load ptr, ptr @pen_device_rwlock, align 8
  call void @SDL_LockRWLockForWriting_REAL(ptr noundef %6)
  %7 = load i32, ptr @pen_device_count, align 4
  %8 = icmp sgt i32 %7, 0
  br i1 %8, label %9, label %42

9:                                                ; preds = %2
  br label %10

10:                                               ; preds = %9
  br label %11

11:                                               ; preds = %10
  call void @llvm.lifetime.start.p0(i64 4, ptr %5) #6
  store i32 0, ptr %5, align 4
  br label %12

12:                                               ; preds = %38, %11
  %13 = load i32, ptr %5, align 4
  %14 = load i32, ptr @pen_device_count, align 4
  %15 = icmp slt i32 %13, %14
  br i1 %15, label %17, label %16

16:                                               ; preds = %12
  call void @llvm.lifetime.end.p0(i64 4, ptr %5) #6
  br label %41

17:                                               ; preds = %12
  %18 = load ptr, ptr %3, align 8
  %19 = load ptr, ptr @pen_devices, align 8
  %20 = load i32, ptr %5, align 4
  %21 = sext i32 %20 to i64
  %22 = getelementptr inbounds %struct.SDL_Pen, ptr %19, i64 %21
  %23 = getelementptr inbounds nuw %struct.SDL_Pen, ptr %22, i32 0, i32 0
  %24 = load i32, ptr %23, align 8
  %25 = load ptr, ptr @pen_devices, align 8
  %26 = load i32, ptr %5, align 4
  %27 = sext i32 %26 to i64
  %28 = getelementptr inbounds %struct.SDL_Pen, ptr %25, i64 %27
  %29 = getelementptr inbounds nuw %struct.SDL_Pen, ptr %28, i32 0, i32 7
  %30 = load ptr, ptr %29, align 8
  %31 = load ptr, ptr %4, align 8
  call void %18(i32 noundef %24, ptr noundef %30, ptr noundef %31)
  %32 = load ptr, ptr @pen_devices, align 8
  %33 = load i32, ptr %5, align 4
  %34 = sext i32 %33 to i64
  %35 = getelementptr inbounds %struct.SDL_Pen, ptr %32, i64 %34
  %36 = getelementptr inbounds nuw %struct.SDL_Pen, ptr %35, i32 0, i32 1
  %37 = load ptr, ptr %36, align 8
  call void @SDL_free_REAL(ptr noundef %37)
  br label %38

38:                                               ; preds = %17
  %39 = load i32, ptr %5, align 4
  %40 = add nsw i32 %39, 1
  store i32 %40, ptr %5, align 4
  br label %12, !llvm.loop !8

41:                                               ; preds = %16
  br label %42

42:                                               ; preds = %41, %2
  %43 = load ptr, ptr @pen_devices, align 8
  call void @SDL_free_REAL(ptr noundef %43)
  store ptr null, ptr @pen_devices, align 8
  %44 = load ptr, ptr @pen_device_rwlock, align 8
  call void @SDL_UnlockRWLock_REAL(ptr noundef %44)
  ret void
}