; Function Attrs: nounwind uwtable
define hidden void @SDL_RemoveAllPenDevices(ptr noundef readonly captures(none) %0, ptr noundef %1) local_unnamed_addr #0 {
  %3 = load ptr, ptr @pen_device_rwlock, align 8
  tail call void @SDL_LockRWLockForWriting_REAL(ptr noundef %3) #8
  %4 = load i32, ptr @pen_device_count, align 4
  %5 = icmp sgt i32 %4, 0
  br i1 %5, label %.lr.ph, label %.loopexit

.lr.ph:                                           ; preds = %2, %.lr.ph
  %indvars.iv = phi i64 [ %indvars.iv.next, %.lr.ph ], [ 0, %2 ]
  %6 = load ptr, ptr @pen_devices, align 8
  %7 = getelementptr inbounds nuw %struct.SDL_Pen, ptr %6, i64 %indvars.iv
  %8 = load i32, ptr %7, align 8
  %9 = getelementptr inbounds nuw i8, ptr %7, i64 80
  %10 = load ptr, ptr %9, align 8
  tail call void %0(i32 noundef %8, ptr noundef %10, ptr noundef %1) #8
  %11 = load ptr, ptr @pen_devices, align 8
  %12 = getelementptr inbounds nuw %struct.SDL_Pen, ptr %11, i64 %indvars.iv, i32 1
  %13 = load ptr, ptr %12, align 8
  tail call void @SDL_free_REAL(ptr noundef %13) #8
  %indvars.iv.next = add nuw nsw i64 %indvars.iv, 1
  %14 = load i32, ptr @pen_device_count, align 4
  %15 = sext i32 %14 to i64
  %16 = icmp slt i64 %indvars.iv.next, %15
  br i1 %16, label %.lr.ph, label %.loopexit, !llvm.loop !8

.loopexit:                                        ; preds = %.lr.ph, %2
  %17 = load ptr, ptr @pen_devices, align 8
  tail call void @SDL_free_REAL(ptr noundef %17) #8
  store ptr null, ptr @pen_devices, align 8
  %18 = load ptr, ptr @pen_device_rwlock, align 8
  tail call void @SDL_UnlockRWLock_REAL(ptr noundef %18) #8
  ret void
}